target datalayout = "e-m:e-p270:32:32-p271:32:32-p272:64:64-i64:64-i128:128-f80:128-n8:16:32:64-S128"
target triple = "x86_64-pc-linux-gnu"

%struct.pmix_psensor_base_t = type { %struct.pmix_list_t, ptr, i8 }
%struct.pmix_list_t = type { %struct.pmix_object_t, %struct.pmix_list_item_t, i64 }
%struct.pmix_object_t = type { %union.pthread_mutex_t, ptr, i32, %struct.pmix_tma }
%union.pthread_mutex_t = type { %struct.__pthread_mutex_s }
%struct.__pthread_mutex_s = type { i32, i32, i32, i32, i32, i16, i16, %struct.__pthread_internal_list }
%struct.__pthread_internal_list = type { ptr, ptr }
%struct.pmix_tma = type { ptr, ptr, ptr, ptr, ptr, ptr, ptr, ptr }
%struct.pmix_list_item_t = type { %struct.pmix_object_t, ptr, ptr, i32 }
%struct.timeval = type { i64, i64 }
%struct.pmix_psensor_heartbeat_component_t = type { %struct.pmix_mca_base_component_2_1_0_t, i8, %struct.pmix_list_t }
%struct.pmix_mca_base_component_2_1_0_t = type { i32, i32, i32, [16 x i8], i32, i32, i32, [32 x i8], i32, i32, i32, [64 x i8], i32, i32, i32, ptr, ptr, ptr, ptr, [32 x i8] }
%struct.event = type { %struct.event_callback, %union.anon.0, i32, ptr, %union.anon.2, i16, i16, %struct.timeval }
%struct.event_callback = type { %struct.anon, i16, i8, i8, %union.anon, ptr }
%struct.anon = type { ptr, ptr }
%union.anon = type { ptr }
%union.anon.0 = type { %struct.anon.1 }
%struct.anon.1 = type { ptr, ptr }
%union.anon.2 = type { %struct.anon.3 }
%struct.anon.3 = type { %struct.anon.4, %struct.timeval }
%struct.anon.4 = type { ptr, ptr }
%struct.pmix_heartbeat_trkr_t = type { %struct.pmix_list_item_t, ptr, ptr, i8, %struct.event, %struct.event, %struct.timeval, i32, i32, i32, i32, i8, ptr, i64, i8 }

@pmix_psensor_base = external global %struct.pmix_psensor_base_t, align 8
@pmix_mca_psensor_heartbeat_component = external global %struct.pmix_psensor_heartbeat_component_t, align 8

; Function Attrs: inlinehint nounwind uwtable
define internal void @_pmix_list_append(ptr noundef %0, ptr noundef %1) #2 {
  %3 = alloca ptr, align 8
  %4 = alloca ptr, align 8
  %5 = alloca ptr, align 8
  store ptr %0, ptr %3, align 8, !tbaa !116
  store ptr %1, ptr %4, align 8, !tbaa !118
  call void @llvm.lifetime.start.p0(i64 8, ptr %5) #11
  %6 = load ptr, ptr %3, align 8, !tbaa !116
  %7 = getelementptr inbounds nuw %struct.pmix_list_t, ptr %6, i32 0, i32 1
  store ptr %7, ptr %5, align 8, !tbaa !118
  %8 = load ptr, ptr %5, align 8, !tbaa !118
  %9 = getelementptr inbounds nuw %struct.pmix_list_item_t, ptr %8, i32 0, i32 2
  %10 = load ptr, ptr %9, align 8, !tbaa !119
  %11 = load ptr, ptr %4, align 8, !tbaa !118
  %12 = getelementptr inbounds nuw %struct.pmix_list_item_t, ptr %11, i32 0, i32 2
  store ptr %10, ptr %12, align 8, !tbaa !119
  %13 = load ptr, ptr %4, align 8, !tbaa !118
  %14 = load ptr, ptr %5, align 8, !tbaa !118
  %15 = getelementptr inbounds nuw %struct.pmix_list_item_t, ptr %14, i32 0, i32 2
  %16 = load ptr, ptr %15, align 8, !tbaa !119
  %17 = getelementptr inbounds nuw %struct.pmix_list_item_t, ptr %16, i32 0, i32 1
  store volatile ptr %13, ptr %17, align 8, !tbaa !111
  %18 = load ptr, ptr %5, align 8, !tbaa !118
  %19 = load ptr, ptr %4, align 8, !tbaa !118
  %20 = getelementptr inbounds nuw %struct.pmix_list_item_t, ptr %19, i32 0, i32 1
  store ptr %18, ptr %20, align 8, !tbaa !111
  %21 = load ptr, ptr %4, align 8, !tbaa !118
  %22 = load ptr, ptr %5, align 8, !tbaa !118
  %23 = getelementptr inbounds nuw %struct.pmix_list_item_t, ptr %22, i32 0, i32 2
  store ptr %21, ptr %23, align 8, !tbaa !119
  %24 = load ptr, ptr %3, align 8, !tbaa !116
  %25 = getelementptr inbounds nuw %struct.pmix_list_t, ptr %24, i32 0, i32 2
  %26 = load volatile i64, ptr %25, align 8, !tbaa !120
  %27 = add i64 %26, 1
  store volatile i64 %27, ptr %25, align 8, !tbaa !120
  call void @llvm.lifetime.end.p0(i64 8, ptr %5) #11
  ret void
}

; Function Attrs: inlinehint nounwind uwtable
define internal void @pmix_atomic_rmb() #2 {
  fence acquire
  ret void
}

; Function Attrs: nounwind uwtable
define internal void @add_tracker(i32 noundef %0, i16 noundef signext %1, ptr noundef %2) #0 {
  %4 = alloca i32, align 4
  %5 = alloca i16, align 2
  %6 = alloca ptr, align 8
  %7 = alloca ptr, align 8
  store i32 %0, ptr %4, align 4, !tbaa !8
  store i16 %1, ptr %5, align 2, !tbaa !109
  store ptr %2, ptr %6, align 8, !tbaa !57
  call void @llvm.lifetime.start.p0(i64 8, ptr %7) #11
  %8 = load ptr, ptr %6, align 8, !tbaa !57
  store ptr %8, ptr %7, align 8, !tbaa !57
  call void @pmix_atomic_rmb()
  %9 = load ptr, ptr %7, align 8, !tbaa !57
  %10 = getelementptr inbounds nuw %struct.pmix_heartbeat_trkr_t, ptr %9, i32 0, i32 0
  call void @_pmix_list_append(ptr noundef getelementptr inbounds nuw (%struct.pmix_psensor_heartbeat_component_t, ptr @pmix_mca_psensor_heartbeat_component, i32 0, i32 2), ptr noundef %10)
  %11 = load ptr, ptr %7, align 8, !tbaa !57
  %12 = getelementptr inbounds nuw %struct.pmix_heartbeat_trkr_t, ptr %11, i32 0, i32 4
  %13 = load ptr, ptr getelementptr inbounds nuw (%struct.pmix_psensor_base_t, ptr @pmix_psensor_base, i32 0, i32 1), align 8, !tbaa !78
  %14 = load ptr, ptr %7, align 8, !tbaa !57
  %15 = call i32 @pmix_event_assign(ptr noundef %12, ptr noundef %13, i32 noundef -1, i16 noundef signext 0, ptr noundef @check_heartbeat, ptr noundef %14)
  %16 = load ptr, ptr %7, align 8, !tbaa !57
  %17 = getelementptr inbounds nuw %struct.pmix_heartbeat_trkr_t, ptr %16, i32 0, i32 4
  %18 = load ptr, ptr %7, align 8, !tbaa !57
  %19 = getelementptr inbounds nuw %struct.pmix_heartbeat_trkr_t, ptr %18, i32 0, i32 6
  %20 = call i32 @event_add(ptr noundef %17, ptr noundef %19)
  %21 = load ptr, ptr %7, align 8, !tbaa !57
  %22 = getelementptr inbounds nuw %struct.pmix_heartbeat_trkr_t, ptr %21, i32 0, i32 3
  store i8 1, ptr %22, align 8, !tbaa !85
  call void @llvm.lifetime.end.p0(i64 8, ptr %7) #11
  ret void
}